target datalayout = "e-m:e-p270:32:32-p271:32:32-p272:64:64-i64:64-i128:128-f80:128-n8:16:32:64-S128"
target triple = "x86_64-pc-linux-gnu"

%struct.SDL_Rect = type { i32, i32, i32, i32 }
%struct.SDL_Point = type { i32, i32 }
%struct.SDL_Window = type { i32, ptr, ptr, i32, i32, i32, i32, i32, i32, i32, i32, float, float, i32, i32, i64, i64, float, i8, i8, i32, i32, %struct.SDL_Rect, %struct.SDL_Rect, %struct.SDL_Rect, i8, i8, i8, %struct.SDL_DisplayMode, %struct.SDL_DisplayMode, %struct.SDL_HDROutputProperties, float, ptr, i8, i8, i8, i8, i8, i8, i8, i8, i8, i32, i32, i32, i32, %struct.SDL_Rect, i32, i8, %struct.SDL_Rect, i32, %struct.SDL_Rect, ptr, ptr, i32, float, i32, i32, ptr, ptr, ptr, ptr, ptr, ptr, ptr, ptr, ptr }
%struct.SDL_DisplayMode = type { i32, i32, i32, i32, float, float, i32, i32, ptr }
%struct.SDL_HDROutputProperties = type { float, float }
%struct.SDL_WindowData = type { ptr, i64, ptr, i64, i8, %struct.XShmSegmentInfo, ptr, ptr, ptr, i8, i32, i32, i32, i32, i8, i8, i8, i64, i32, i64, i8, %struct.SDL_Point, %struct.XConfigureEvent, %struct.XConfigureEvent, ptr, i64, i64, i64, i8, i64, ptr, i8, [4 x i64], %struct.SDL_Rect, i64, %struct._XSyncValue, i8, %struct.SDL_Rect, %struct.SDL_DisplayMode, i32, i32, i8, i8, i8, i8, i8, i8, i8, i8, i32, %struct.XPoint, ptr, ptr, i32, i32, i8 }
%struct.XShmSegmentInfo = type { i64, i32, ptr, i32 }
%struct.XConfigureEvent = type { i32, i64, i32, ptr, i64, i64, i32, i32, i32, i32, i32, i64, i32 }
%struct._XSyncValue = type { i32, i32 }
%struct.XPoint = type { i16, i16 }

; Function Attrs: nounwind uwtable
define hidden void @X11_RestoreWindow(ptr noundef %0, ptr noundef %1) #0 {
  %3 = alloca ptr, align 8
  %4 = alloca ptr, align 8
  %5 = alloca i8, align 1
  store ptr %0, ptr %3, align 8
  store ptr %1, ptr %4, align 8
  %6 = load ptr, ptr %4, align 8
  %7 = getelementptr inbounds nuw %struct.SDL_Window, ptr %6, i32 0, i32 59
  %8 = load ptr, ptr %7, align 8
  %9 = getelementptr inbounds nuw %struct.SDL_WindowData, ptr %8, i32 0, i32 47
  %10 = load i8, ptr %9, align 2, !range !5, !noundef !6
  %11 = trunc i8 %10 to i1
  br i1 %11, label %13, label %12

12:                                               ; preds = %2
  br label %88

13:                                               ; preds = %2
  %14 = load ptr, ptr %4, align 8
  %15 = getelementptr inbounds nuw %struct.SDL_Window, ptr %14, i32 0, i32 59
  %16 = load ptr, ptr %15, align 8
  %17 = getelementptr inbounds nuw %struct.SDL_WindowData, ptr %16, i32 0, i32 39
  %18 = load i32, ptr %17, align 8
  %19 = and i32 %18, 14
  %20 = icmp ne i32 %19, 0
  br i1 %20, label %21, label %24

21:                                               ; preds = %13
  %22 = load ptr, ptr %4, align 8
  %23 = call zeroext i1 @SDL_SyncWindow_REAL(ptr noundef %22)
  br label %24

24:                                               ; preds = %21, %13
  %25 = load ptr, ptr %4, align 8
  %26 = getelementptr inbounds nuw %struct.SDL_Window, ptr %25, i32 0, i32 15
  %27 = load i64, ptr %26, align 8
  %28 = and i64 %27, 1
  %29 = icmp ne i64 %28, 0
  br i1 %29, label %30, label %41

30:                                               ; preds = %24
  %31 = load ptr, ptr %4, align 8
  %32 = getelementptr inbounds nuw %struct.SDL_Window, ptr %31, i32 0, i32 15
  %33 = load i64, ptr %32, align 8
  %34 = and i64 %33, 64
  %35 = icmp ne i64 %34, 0
  br i1 %35, label %41, label %36

36:                                               ; preds = %30
  %37 = load ptr, ptr %4, align 8
  %38 = getelementptr inbounds nuw %struct.SDL_Window, ptr %37, i32 0, i32 59
  %39 = load ptr, ptr %38, align 8
  %40 = getelementptr inbounds nuw %struct.SDL_WindowData, ptr %39, i32 0, i32 43
  store i8 0, ptr %40, align 2
  br label %88

41:                                               ; preds = %30, %24
  %42 = load ptr, ptr %4, align 8
  %43 = getelementptr inbounds nuw %struct.SDL_Window, ptr %42, i32 0, i32 15
  %44 = load i64, ptr %43, align 8
  %45 = and i64 %44, 192
  %46 = icmp ne i64 %45, 0
  br i1 %46, label %55, label %47

47:                                               ; preds = %41
  %48 = load ptr, ptr %4, align 8
  %49 = getelementptr inbounds nuw %struct.SDL_Window, ptr %48, i32 0, i32 59
  %50 = load ptr, ptr %49, align 8
  %51 = getelementptr inbounds nuw %struct.SDL_WindowData, ptr %50, i32 0, i32 39
  %52 = load i32, ptr %51, align 8
  %53 = and i32 %52, 2
  %54 = icmp ne i32 %53, 0
  br i1 %54, label %55, label %62

55:                                               ; preds = %47, %41
  %56 = load ptr, ptr %4, align 8
  %57 = getelementptr inbounds nuw %struct.SDL_Window, ptr %56, i32 0, i32 59
  %58 = load ptr, ptr %57, align 8
  %59 = getelementptr inbounds nuw %struct.SDL_WindowData, ptr %58, i32 0, i32 39
  %60 = load i32, ptr %59, align 8
  %61 = or i32 %60, 1
  store i32 %61, ptr %59, align 8
  br label %62

62:                                               ; preds = %55, %47
  call void @llvm.lifetime.start.p0(i64 1, ptr %5) #7
  %63 = load ptr, ptr %4, align 8
  %64 = getelementptr inbounds nuw %struct.SDL_Window, ptr %63, i32 0, i32 15
  %65 = load i64, ptr %64, align 8
  %66 = and i64 %65, 64
  %67 = icmp ne i64 %66, 0
  br i1 %67, label %68, label %75

68:                                               ; preds = %62
  %69 = load ptr, ptr %4, align 8
  %70 = getelementptr inbounds nuw %struct.SDL_Window, ptr %69, i32 0, i32 59
  %71 = load ptr, ptr %70, align 8
  %72 = getelementptr inbounds nuw %struct.SDL_WindowData, ptr %71, i32 0, i32 43
  %73 = load i8, ptr %72, align 2, !range !5, !noundef !6
  %74 = trunc i8 %73 to i1
  br label %75

75:                                               ; preds = %68, %62
  %76 = phi i1 [ false, %62 ], [ %74, %68 ]
  %77 = zext i1 %76 to i8
  store i8 %77, ptr %5, align 1
  %78 = load ptr, ptr %3, align 8
  %79 = load ptr, ptr %4, align 8
  %80 = load i8, ptr %5, align 1, !range !5, !noundef !6
  %81 = trunc i8 %80 to i1
  %82 = call zeroext i1 @X11_SetWindowMaximized(ptr noundef %78, ptr noundef %79, i1 noundef zeroext %81)
  %83 = load ptr, ptr %3, align 8
  %84 = load ptr, ptr %4, align 8
  call void @X11_ShowWindow(ptr noundef %83, ptr noundef %84)
  %85 = load ptr, ptr %3, align 8
  %86 = load ptr, ptr %4, align 8
  %87 = call zeroext i1 @X11_SetWindowActive(ptr noundef %85, ptr noundef %86)
  call void @llvm.lifetime.end.p0(i64 1, ptr %5) #7
  br label %88

88:                                               ; preds = %75, %36, %12
  ret void
}