; Function Attrs: nounwind uwtable
define hidden void @X11_RestoreWindow(ptr noundef %0, ptr noundef %1) local_unnamed_addr #0 {
  %3 = getelementptr inbounds nuw i8, ptr %1, i64 392
  %4 = load ptr, ptr %3, align 8
  %5 = getelementptr inbounds nuw i8, ptr %4, i64 542
  %6 = load i8, ptr %5, align 2, !range !5, !noundef !6
  %7 = trunc nuw i8 %6 to i1
  br i1 %7, label %8, label %38

8:                                                ; preds = %2
  %9 = getelementptr inbounds nuw i8, ptr %4, i64 528
  %10 = load i32, ptr %9, align 8
  %11 = and i32 %10, 14
  %.not = icmp eq i32 %11, 0
  br i1 %.not, label %14, label %12

12:                                               ; preds = %8
  %13 = tail call zeroext i1 @SDL_SyncWindow_REAL(ptr noundef nonnull %1) #12
  br label %14

14:                                               ; preds = %12, %8
  %15 = getelementptr inbounds nuw i8, ptr %1, i64 72
  %16 = load i64, ptr %15, align 8
  %17 = and i64 %16, 65
  %or.cond = icmp eq i64 %17, 1
  br i1 %or.cond, label %18, label %21

18:                                               ; preds = %14
  %19 = load ptr, ptr %3, align 8
  %20 = getelementptr inbounds nuw i8, ptr %19, i64 538
  store i8 0, ptr %20, align 2
  br label %38

21:                                               ; preds = %14
  %22 = and i64 %16, 192
  %.not19 = icmp eq i64 %22, 0
  %.pre = load ptr, ptr %3, align 8
  %23 = getelementptr inbounds nuw i8, ptr %.pre, i64 528
  %24 = load i32, ptr %23, align 8
  %25 = and i32 %24, 2
  %.not20 = icmp eq i32 %25, 0
  %or.cond24 = select i1 %.not19, i1 %.not20, i1 false
  br i1 %or.cond24, label %28, label %._crit_edge

._crit_edge:                                      ; preds = %21
  %26 = getelementptr inbounds nuw i8, ptr %.pre, i64 528
  %27 = or i32 %24, 1
  store i32 %27, ptr %26, align 8
  %.pre23 = load i64, ptr %15, align 8
  br label %28

28:                                               ; preds = %21, %._crit_edge
  %29 = phi i64 [ %.pre23, %._crit_edge ], [ %16, %21 ]
  %30 = and i64 %29, 64
  %.not21 = icmp eq i64 %30, 0
  br i1 %.not21, label %36, label %31

31:                                               ; preds = %28
  %32 = load ptr, ptr %3, align 8
  %33 = getelementptr inbounds nuw i8, ptr %32, i64 538
  %34 = load i8, ptr %33, align 2, !range !5, !noundef !6
  %35 = trunc nuw i8 %34 to i1
  br label %36

36:                                               ; preds = %31, %28
  %37 = phi i1 [ false, %28 ], [ %35, %31 ]
  tail call fastcc void @X11_SetWindowMaximized(ptr noundef %0, ptr noundef nonnull %1, i1 noundef zeroext %37)
  tail call void @X11_ShowWindow(ptr noundef %0, ptr noundef nonnull %1)
  tail call fastcc void @X11_SetWindowActive(ptr noundef %0, ptr noundef nonnull %1)
  br label %38

38:                                               ; preds = %2, %36, %18
  ret void
}